target datalayout = "e-m:e-p270:32:32-p271:32:32-p272:64:64-i64:64-i128:128-f80:128-n8:16:32:64-S128"
target triple = "x86_64-unknown-linux-gnu"

%"class.icu_75::StringMatcher" = type <{ %"class.icu_75::UnicodeFunctor", %"class.icu_75::UnicodeMatcher", %"class.icu_75::UnicodeReplacer", %"class.icu_75::UnicodeString", ptr, i32, i32, i32, [4 x i8] }>
%"class.icu_75::UnicodeFunctor" = type { %"class.icu_75::UObject" }
%"class.icu_75::UObject" = type { ptr }
%"class.icu_75::UnicodeMatcher" = type { ptr }
%"class.icu_75::UnicodeReplacer" = type { ptr }
%"class.icu_75::UnicodeString" = type { %"class.icu_75::Replaceable", %"union.icu_75::UnicodeString::StackBufferOrFields" }
%"class.icu_75::Replaceable" = type { %"class.icu_75::UObject" }
%"union.icu_75::UnicodeString::StackBufferOrFields" = type { %struct.anon.0, [32 x i8] }
%struct.anon.0 = type { i16, i32, i32, ptr }

; Function Attrs: mustprogress nounwind uwtable
define linkonce_odr noundef i32 @_ZNK6icu_7513UnicodeString14getShortLengthEv(ptr noundef nonnull align 8 dereferenceable(64) %this) #0 comdat align 2 {
entry:
  %this.addr = alloca ptr, align 8
  store ptr %this, ptr %this.addr, align 8
  %this1 = load ptr, ptr %this.addr, align 8
  %fUnion = getelementptr inbounds %"class.icu_75::UnicodeString", ptr %this1, i32 0, i32 1
  %fLengthAndFlags = getelementptr inbounds %struct.anon.0, ptr %fUnion, i32 0, i32 0
  %0 = load i16, ptr %fLengthAndFlags, align 8
  %conv = sext i16 %0 to i32
  %shr = ashr i32 %conv, 5
  ret i32 %shr
}

; Function Attrs: mustprogress nounwind uwtable
define linkonce_odr noundef signext i8 @_ZNK6icu_7513UnicodeString14hasShortLengthEv(ptr noundef nonnull align 8 dereferenceable(64) %this) #0 comdat align 2 {
entry:
  %this.addr = alloca ptr, align 8
  store ptr %this, ptr %this.addr, align 8
  %this1 = load ptr, ptr %this.addr, align 8
  %fUnion = getelementptr inbounds %"class.icu_75::UnicodeString", ptr %this1, i32 0, i32 1
  %fLengthAndFlags = getelementptr inbounds %struct.anon.0, ptr %fUnion, i32 0, i32 0
  %0 = load i16, ptr %fLengthAndFlags, align 8
  %conv = sext i16 %0 to i32
  %cmp = icmp sge i32 %conv, 0
  %conv2 = zext i1 %cmp to i8
  ret i8 %conv2
}

; Function Attrs: mustprogress uwtable
define linkonce_odr noundef i32 @_ZNK6icu_7513UnicodeString6lengthEv(ptr noundef nonnull align 8 dereferenceable(64) %this) #1 comdat align 2 {
entry:
  %this.addr = alloca ptr, align 8
  store ptr %this, ptr %this.addr, align 8
  %this1 = load ptr, ptr %this.addr, align 8
  %call = call noundef signext i8 @_ZNK6icu_7513UnicodeString14hasShortLengthEv(ptr noundef nonnull align 8 dereferenceable(64) %this1)
  %tobool = icmp ne i8 %call, 0
  br i1 %tobool, label %cond.true, label %cond.false

cond.true:                                        ; preds = %entry
  %call2 = call noundef i32 @_ZNK6icu_7513UnicodeString14getShortLengthEv(ptr noundef nonnull align 8 dereferenceable(64) %this1)
  br label %cond.end

cond.false:                                       ; preds = %entry
  %fUnion = getelementptr inbounds %"class.icu_75::UnicodeString", ptr %this1, i32 0, i32 1
  %fLength = getelementptr inbounds %struct.anon.0, ptr %fUnion, i32 0, i32 1
  %0 = load i32, ptr %fLength, align 4
  br label %cond.end

cond.end:                                         ; preds = %cond.false, %cond.true
  %cond = phi i32 [ %call2, %cond.true ], [ %0, %cond.false ]
  ret i32 %cond
}

; Function Attrs: mustprogress uwtable
define noundef signext i8 @_ZNK6icu_7513StringMatcher17matchesIndexValueEh(ptr noundef nonnull align 8 dereferenceable(108) %this, i8 noundef zeroext %v) unnamed_addr #1 align 2 {
entry:
  %retval = alloca i8, align 1
  %this.addr = alloca ptr, align 8
  %v.addr = alloca i8, align 1
  %c = alloca i32, align 4
  %m = alloca ptr, align 8
  store ptr %this, ptr %this.addr, align 8
  store i8 %v, ptr %v.addr, align 1
  %this1 = load ptr, ptr %this.addr, align 8
  %pattern = getelementptr inbounds %"class.icu_75::StringMatcher", ptr %this1, i32 0, i32 3
  %call = call noundef i32 @_ZNK6icu_7513UnicodeString6lengthEv(ptr noundef nonnull align 8 dereferenceable(64) %pattern)
  %cmp = icmp eq i32 %call, 0
  br i1 %cmp, label %if.then, label %if.end

if.then:                                          ; preds = %entry
  store i8 1, ptr %retval, align 1
  br label %return

if.end:                                           ; preds = %entry
  %pattern2 = getelementptr inbounds %"class.icu_75::StringMatcher", ptr %this1, i32 0, i32 3
  %call3 = call noundef i32 @_ZNK6icu_7513UnicodeString8char32AtEi(ptr noundef nonnull align 8 dereferenceable(64) %pattern2, i32 noundef 0)
  store i32 %call3, ptr %c, align 4
  %data = getelementptr inbounds %"class.icu_75::StringMatcher", ptr %this1, i32 0, i32 4
  %0 = load ptr, ptr %data, align 8
  %1 = load i32, ptr %c, align 4
  %call4 = call noundef ptr @_ZNK6icu_7523TransliterationRuleData13lookupMatcherEi(ptr noundef nonnull align 8 dereferenceable(1168) %0, i32 noundef %1)
  store ptr %call4, ptr %m, align 8
  %2 = load ptr, ptr %m, align 8
  %cmp5 = icmp eq ptr %2, null
  br i1 %cmp5, label %cond.true, label %cond.false

cond.true:                                        ; preds = %if.end
  %3 = load i32, ptr %c, align 4
  %and = and i32 %3, 255
  %4 = load i8, ptr %v.addr, align 1
  %conv = zext i8 %4 to i32
  %cmp6 = icmp eq i32 %and, %conv
  %conv7 = zext i1 %cmp6 to i32
  br label %cond.end

cond.false:                                       ; preds = %if.end
  %5 = load ptr, ptr %m, align 8
  %6 = load i8, ptr %v.addr, align 1
  %vtable = load ptr, ptr %5, align 8
  %vfn = getelementptr inbounds ptr, ptr %vtable, i64 4
  %7 = load ptr, ptr %vfn, align 8
  %call8 = call noundef signext i8 %7(ptr noundef nonnull align 8 dereferenceable(8) %5, i8 noundef zeroext %6)
  %conv9 = sext i8 %call8 to i32
  br label %cond.end

cond.end:                                         ; preds = %cond.false, %cond.true
  %cond = phi i32 [ %conv7, %cond.true ], [ %conv9, %cond.false ]
  %conv10 = trunc i32 %cond to i8
  store i8 %conv10, ptr %retval, align 1
  br label %return

return:                                           ; preds = %cond.end, %if.then
  %8 = load i8, ptr %retval, align 1
  ret i8 %8
}

; Function Attrs: uwtable
define noundef signext i8 @_ZThn8_NK6icu_7513StringMatcher17matchesIndexValueEh(ptr noundef %this, i8 noundef zeroext %v) unnamed_addr #8 align 2 {
entry:
  %this.addr = alloca ptr, align 8
  %v.addr = alloca i8, align 1
  store ptr %this, ptr %this.addr, align 8
  store i8 %v, ptr %v.addr, align 1
  %this1 = load ptr, ptr %this.addr, align 8
  %0 = getelementptr inbounds i8, ptr %this1, i64 -8
  %1 = load i8, ptr %v.addr, align 1
  %call = tail call noundef signext i8 @_ZNK6icu_7513StringMatcher17matchesIndexValueEh(ptr noundef nonnull align 8 dereferenceable(108) %0, i8 noundef zeroext %1)
  ret i8 %call
}