; Function Attrs: uwtable
define noundef signext i8 @_ZThn8_NK6icu_7513StringMatcher17matchesIndexValueEh(ptr noundef %this, i8 noundef zeroext %v) unnamed_addr #9 align 2 {
entry:
  %fUnion.i.i.i = getelementptr inbounds i8, ptr %this, i64 24
  %0 = load i16, ptr %fUnion.i.i.i, align 8
  %cmp.i.i.i = icmp slt i16 %0, 0
  %1 = ashr i16 %0, 5
  %shr.i.i.i = sext i16 %1 to i32
  %fLength.i.i = getelementptr inbounds i8, ptr %this, i64 28
  %2 = load i32, ptr %fLength.i.i, align 4
  %cond.i.i = select i1 %cmp.i.i.i, i32 %2, i32 %shr.i.i.i
  %cmp.i = icmp eq i32 %cond.i.i, 0
  br i1 %cmp.i, label %_ZNK6icu_7513StringMatcher17matchesIndexValueEh.exit, label %if.end.i

if.end.i:                                         ; preds = %entry
  %pattern.i = getelementptr inbounds i8, ptr %this, i64 16
  %call3.i = tail call noundef i32 @_ZNK6icu_7513UnicodeString8char32AtEi(ptr noundef nonnull align 8 dereferenceable(64) %pattern.i, i32 noundef 0)
  %data.i = getelementptr inbounds i8, ptr %this, i64 80
  %3 = load ptr, ptr %data.i, align 8
  %call4.i = tail call noundef ptr @_ZNK6icu_7523TransliterationRuleData13lookupMatcherEi(ptr noundef nonnull align 8 dereferenceable(1168) %3, i32 noundef %call3.i)
  %cmp5.i = icmp eq ptr %call4.i, null
  br i1 %cmp5.i, label %cond.true.i, label %cond.false.i

cond.true.i:                                      ; preds = %if.end.i
  %4 = trunc i32 %call3.i to i8
  %cmp6.i = icmp eq i8 %4, %v
  %5 = zext i1 %cmp6.i to i8
  br label %_ZNK6icu_7513StringMatcher17matchesIndexValueEh.exit

cond.false.i:                                     ; preds = %if.end.i
  %vtable.i = load ptr, ptr %call4.i, align 8
  %vfn.i = getelementptr inbounds i8, ptr %vtable.i, i64 32
  %6 = load ptr, ptr %vfn.i, align 8
  %call8.i = tail call noundef signext i8 %6(ptr noundef nonnull align 8 dereferenceable(8) %call4.i, i8 noundef zeroext %v)
  br label %_ZNK6icu_7513StringMatcher17matchesIndexValueEh.exit

_ZNK6icu_7513StringMatcher17matchesIndexValueEh.exit: ; preds = %entry, %cond.true.i, %cond.false.i
  %retval.0.i = phi i8 [ 1, %entry ], [ %5, %cond.true.i ], [ %call8.i, %cond.false.i ]
  ret i8 %retval.0.i
}